; ModuleID = '2/35.c'
source_filename = "2/35.c"
target datalayout = "e-m:e-p270:32:32-p271:32:32-p272:64:64-i64:64-f80:128-n8:16:32:64-S128"
target triple = "x86_64-pc-linux-gnu"

%struct.data = type { i32, [10 x i8] }

@.str = private unnamed_addr constant [3 x i8] c"%d\00", align 1
@.str.1 = private unnamed_addr constant [3 x i8] c"%s\00", align 1
@.str.2 = private unnamed_addr constant [4 x i8] c"%c\0A\00", align 1
@.str.3 = private unnamed_addr constant [4 x i8] c"%d\0A\00", align 1

; Function Attrs: noinline nounwind uwtable
define dso_local void @main() #0 {
  %1 = alloca [1000 x %struct.data], align 16
  %2 = alloca i8, align 1
  %3 = alloca i32, align 4
  %4 = alloca i32, align 4
  %5 = alloca i32, align 4
  %6 = alloca [26 x i32], align 16
  %7 = alloca [1000 x i32], align 16
  %8 = alloca i32, align 4
  %9 = alloca i32, align 4
  %10 = bitcast [26 x i32]* %6 to i8*
  call void @llvm.memset.p0i8.i64(i8* align 16 %10, i8 0, i64 104, i1 false)
  %11 = call i32 (i8*, ...) @__isoc99_scanf(i8* getelementptr inbounds ([3 x i8], [3 x i8]* @.str, i64 0, i64 0), i32* %3)
  store i32 0, i32* %4, align 4
  br label %12

12:                                               ; preds = %38, %0
  %13 = load i32, i32* %4, align 4
  %14 = load i32, i32* %3, align 4
  %15 = icmp slt i32 %13, %14
  br i1 %15, label %16, label %41

16:                                               ; preds = %12
  %17 = load i32, i32* %4, align 4
  %18 = sext i32 %17 to i64
  %19 = getelementptr inbounds [1000 x %struct.data], [1000 x %struct.data]* %1, i64 0, i64 %18
  %20 = getelementptr inbounds %struct.data, %struct.data* %19, i32 0, i32 0
  %21 = call i32 (i8*, ...) @__isoc99_scanf(i8* getelementptr inbounds ([3 x i8], [3 x i8]* @.str, i64 0, i64 0), i32* %20)
  %22 = load i32, i32* %4, align 4
  %23 = sext i32 %22 to i64
  %24 = getelementptr inbounds [1000 x %struct.data], [1000 x %struct.data]* %1, i64 0, i64 %23
  %25 = getelementptr inbounds %struct.data, %struct.data* %24, i32 0, i32 1
  %26 = getelementptr inbounds [10 x i8], [10 x i8]* %25, i64 0, i64 0
  %27 = call i32 (i8*, ...) @__isoc99_scanf(i8* getelementptr inbounds ([3 x i8], [3 x i8]* @.str.1, i64 0, i64 0), i8* %26)
  %28 = load i32, i32* %4, align 4
  %29 = sext i32 %28 to i64
  %30 = getelementptr inbounds [1000 x %struct.data], [1000 x %struct.data]* %1, i64 0, i64 %29
  %31 = getelementptr inbounds %struct.data, %struct.data* %30, i32 0, i32 1
  %32 = getelementptr inbounds [10 x i8], [10 x i8]* %31, i64 0, i64 0
  %33 = call i64 @strlen(i8* %32) #4
  %34 = trunc i64 %33 to i32
  %35 = load i32, i32* %4, align 4
  %36 = sext i32 %35 to i64
  %37 = getelementptr inbounds [1000 x i32], [1000 x i32]* %7, i64 0, i64 %36
  store i32 %34, i32* %37, align 4
  br label %38

38:                                               ; preds = %16
  %39 = load i32, i32* %4, align 4
  %40 = add nsw i32 %39, 1
  store i32 %40, i32* %4, align 4
  br label %12

41:                                               ; preds = %12
  store i32 0, i32* %4, align 4
  br label %42

42:                                               ; preds = %85, %41
  %43 = load i32, i32* %4, align 4
  %44 = load i32, i32* %3, align 4
  %45 = icmp slt i32 %43, %44
  br i1 %45, label %46, label %88

46:                                               ; preds = %42
  store i32 0, i32* %5, align 4
  br label %47

47:                                               ; preds = %81, %46
  %48 = load i32, i32* %5, align 4
  %49 = load i32, i32* %4, align 4
  %50 = sext i32 %49 to i64
  %51 = getelementptr inbounds [1000 x i32], [1000 x i32]* %7, i64 0, i64 %50
  %52 = load i32, i32* %51, align 4
  %53 = icmp slt i32 %48, %52
  br i1 %53, label %54, label %84

54:                                               ; preds = %47
  %55 = load i32, i32* %4, align 4
  %56 = sext i32 %55 to i64
  %57 = getelementptr inbounds [1000 x %struct.data], [1000 x %struct.data]* %1, i64 0, i64 %56
  %58 = getelementptr inbounds %struct.data, %struct.data* %57, i32 0, i32 1
  %59 = load i32, i32* %5, align 4
  %60 = sext i32 %59 to i64
  %61 = getelementptr inbounds [10 x i8], [10 x i8]* %58, i64 0, i64 %60
  %62 = load i8, i8* %61, align 1
  %63 = sext i8 %62 to i32
  %64 = sub nsw i32 %63, 65
  %65 = sext i32 %64 to i64
  %66 = getelementptr inbounds [26 x i32], [26 x i32]* %6, i64 0, i64 %65
  %67 = load i32, i32* %66, align 4
  %68 = add nsw i32 %67, 1
  %69 = load i32, i32* %4, align 4
  %70 = sext i32 %69 to i64
  %71 = getelementptr inbounds [1000 x %struct.data], [1000 x %struct.data]* %1, i64 0, i64 %70
  %72 = getelementptr inbounds %struct.data, %struct.data* %71, i32 0, i32 1
  %73 = load i32, i32* %5, align 4
  %74 = sext i32 %73 to i64
  %75 = getelementptr inbounds [10 x i8], [10 x i8]* %72, i64 0, i64 %74
  %76 = load i8, i8* %75, align 1
  %77 = sext i8 %76 to i32
  %78 = sub nsw i32 %77, 65
  %79 = sext i32 %78 to i64
  %80 = getelementptr inbounds [26 x i32], [26 x i32]* %6, i64 0, i64 %79
  store i32 %68, i32* %80, align 4
  br label %81

81:                                               ; preds = %54
  %82 = load i32, i32* %5, align 4
  %83 = add nsw i32 %82, 1
  store i32 %83, i32* %5, align 4
  br label %47

84:                                               ; preds = %47
  br label %85

85:                                               ; preds = %84
  %86 = load i32, i32* %4, align 4
  %87 = add nsw i32 %86, 1
  store i32 %87, i32* %4, align 4
  br label %42

88:                                               ; preds = %42
  %89 = getelementptr inbounds [26 x i32], [26 x i32]* %6, i64 0, i64 0
  %90 = load i32, i32* %89, align 16
  store i32 %90, i32* %9, align 4
  store i32 0, i32* %4, align 4
  br label %91

91:                                               ; preds = %108, %88
  %92 = load i32, i32* %4, align 4
  %93 = icmp slt i32 %92, 26
  br i1 %93, label %94, label %111

94:                                               ; preds = %91
  %95 = load i32, i32* %4, align 4
  %96 = sext i32 %95 to i64
  %97 = getelementptr inbounds [26 x i32], [26 x i32]* %6, i64 0, i64 %96
  %98 = load i32, i32* %97, align 4
  %99 = load i32, i32* %9, align 4
  %100 = icmp sgt i32 %98, %99
  br i1 %100, label %101, label %107

101:                                              ; preds = %94
  %102 = load i32, i32* %4, align 4
  %103 = sext i32 %102 to i64
  %104 = getelementptr inbounds [26 x i32], [26 x i32]* %6, i64 0, i64 %103
  %105 = load i32, i32* %104, align 4
  store i32 %105, i32* %9, align 4
  %106 = load i32, i32* %4, align 4
  store i32 %106, i32* %8, align 4
  br label %107

107:                                              ; preds = %101, %94
  br label %108

108:                                              ; preds = %107
  %109 = load i32, i32* %4, align 4
  %110 = add nsw i32 %109, 1
  store i32 %110, i32* %4, align 4
  br label %91

111:                                              ; preds = %91
  %112 = load i32, i32* %8, align 4
  %113 = add nsw i32 %112, 65
  %114 = call i32 (i8*, ...) @printf(i8* getelementptr inbounds ([4 x i8], [4 x i8]* @.str.2, i64 0, i64 0), i32 %113)
  %115 = load i32, i32* %9, align 4
  %116 = call i32 (i8*, ...) @printf(i8* getelementptr inbounds ([4 x i8], [4 x i8]* @.str.3, i64 0, i64 0), i32 %115)
  %117 = load i32, i32* %8, align 4
  %118 = add nsw i32 %117, 65
  %119 = trunc i32 %118 to i8
  store i8 %119, i8* %2, align 1
  store i32 0, i32* %4, align 4
  br label %120

120:                                              ; preds = %157, %111
  %121 = load i32, i32* %4, align 4
  %122 = load i32, i32* %3, align 4
  %123 = icmp slt i32 %121, %122
  br i1 %123, label %124, label %160

124:                                              ; preds = %120
  store i32 0, i32* %5, align 4
  br label %125

125:                                              ; preds = %153, %124
  %126 = load i32, i32* %5, align 4
  %127 = load i32, i32* %4, align 4
  %128 = sext i32 %127 to i64
  %129 = getelementptr inbounds [1000 x i32], [1000 x i32]* %7, i64 0, i64 %128
  %130 = load i32, i32* %129, align 4
  %131 = icmp slt i32 %126, %130
  br i1 %131, label %132, label %156

132:                                              ; preds = %125
  %133 = load i32, i32* %4, align 4
  %134 = sext i32 %133 to i64
  %135 = getelementptr inbounds [1000 x %struct.data], [1000 x %struct.data]* %1, i64 0, i64 %134
  %136 = getelementptr inbounds %struct.data, %struct.data* %135, i32 0, i32 1
  %137 = load i32, i32* %5, align 4
  %138 = sext i32 %137 to i64
  %139 = getelementptr inbounds [10 x i8], [10 x i8]* %136, i64 0, i64 %138
  %140 = load i8, i8* %139, align 1
  %141 = sext i8 %140 to i32
  %142 = load i8, i8* %2, align 1
  %143 = sext i8 %142 to i32
  %144 = icmp eq i32 %141, %143
  br i1 %144, label %145, label %152

145:                                              ; preds = %132
  %146 = load i32, i32* %4, align 4
  %147 = sext i32 %146 to i64
  %148 = getelementptr inbounds [1000 x %struct.data], [1000 x %struct.data]* %1, i64 0, i64 %147
  %149 = getelementptr inbounds %struct.data, %struct.data* %148, i32 0, i32 0
  %150 = load i32, i32* %149, align 16
  %151 = call i32 (i8*, ...) @printf(i8* getelementptr inbounds ([4 x i8], [4 x i8]* @.str.3, i64 0, i64 0), i32 %150)
  br label %152

152:                                              ; preds = %145, %132
  br label %153

153:                                              ; preds = %152
  %154 = load i32, i32* %5, align 4
  %155 = add nsw i32 %154, 1
  store i32 %155, i32* %5, align 4
  br label %125

156:                                              ; preds = %125
  br label %157

157:                                              ; preds = %156
  %158 = load i32, i32* %4, align 4
  %159 = add nsw i32 %158, 1
  store i32 %159, i32* %4, align 4
  br label %120

160:                                              ; preds = %120
  ret void
}

; Function Attrs: argmemonly nounwind willreturn
declare void @llvm.memset.p0i8.i64(i8* nocapture writeonly, i8, i64, i1 immarg) #1

declare dso_local i32 @__isoc99_scanf(i8*, ...) #2

; Function Attrs: nounwind readonly
declare dso_local i64 @strlen(i8*) #3

declare dso_local i32 @printf(i8*, ...) #2


!llvm.module.flags = !{!0}
!llvm.ident = !{!1}

!0 = !{i32 1, !"wchar_size", i32 4}
!1 = !{!"clang version 10.0.0-4ubuntu1 "}
